target datalayout = "e-m:e-p270:32:32-p271:32:32-p272:64:64-i64:64-i128:128-f80:128-n8:16:32:64-S128"
target triple = "x86_64-pc-linux-gnu"

; Function Attrs: inlinehint mustprogress nounwind uwtable
define linkonce_odr noundef nonnull align 4 dereferenceable(4) ptr @_ZSt3minIfERKT_S2_S2_(ptr noundef nonnull align 4 dereferenceable(4) %0, ptr noundef nonnull align 4 dereferenceable(4) %1) #6 comdat {
  %3 = alloca ptr, align 8
  %4 = alloca ptr, align 8
  %5 = alloca ptr, align 8
  store ptr %0, ptr %4, align 8, !tbaa !68
  store ptr %1, ptr %5, align 8, !tbaa !68
  %6 = load ptr, ptr %5, align 8, !tbaa !68
  %7 = load float, ptr %6, align 4, !tbaa !70
  %8 = load ptr, ptr %4, align 8, !tbaa !68
  %9 = load float, ptr %8, align 4, !tbaa !70
  %10 = fcmp olt float %7, %9
  br i1 %10, label %11, label %13

11:                                               ; preds = %2
  %12 = load ptr, ptr %5, align 8, !tbaa !68
  store ptr %12, ptr %3, align 8
  br label %15

13:                                               ; preds = %2
  %14 = load ptr, ptr %4, align 8, !tbaa !68
  store ptr %14, ptr %3, align 8
  br label %15

15:                                               ; preds = %13, %11
  %16 = load ptr, ptr %3, align 8
  ret ptr %16
}

; Function Attrs: mustprogress uwtable
define hidden void @_ZN2cv8ximgproc10intrinsics4min_EPfS2_S2_i(ptr noundef %0, ptr noundef %1, ptr noundef %2, i32 noundef %3) #4 {
  %5 = alloca ptr, align 8
  %6 = alloca ptr, align 8
  %7 = alloca ptr, align 8
  %8 = alloca i32, align 4
  %9 = alloca i32, align 4
  store ptr %0, ptr %5, align 8, !tbaa !68
  store ptr %1, ptr %6, align 8, !tbaa !68
  store ptr %2, ptr %7, align 8, !tbaa !68
  store i32 %3, ptr %8, align 4, !tbaa !10
  call void @llvm.lifetime.start.p0(i64 4, ptr %9) #3
  store i32 0, ptr %9, align 4, !tbaa !10
  br label %10

10:                                               ; preds = %29, %4
  %11 = load i32, ptr %9, align 4, !tbaa !10
  %12 = load i32, ptr %8, align 4, !tbaa !10
  %13 = icmp slt i32 %11, %12
  br i1 %13, label %14, label %32

14:                                               ; preds = %10
  %15 = load ptr, ptr %6, align 8, !tbaa !68
  %16 = load i32, ptr %9, align 4, !tbaa !10
  %17 = sext i32 %16 to i64
  %18 = getelementptr inbounds float, ptr %15, i64 %17
  %19 = load ptr, ptr %7, align 8, !tbaa !68
  %20 = load i32, ptr %9, align 4, !tbaa !10
  %21 = sext i32 %20 to i64
  %22 = getelementptr inbounds float, ptr %19, i64 %21
  %23 = call noundef nonnull align 4 dereferenceable(4) ptr @_ZSt3minIfERKT_S2_S2_(ptr noundef nonnull align 4 dereferenceable(4) %18, ptr noundef nonnull align 4 dereferenceable(4) %22)
  %24 = load float, ptr %23, align 4, !tbaa !70
  %25 = load ptr, ptr %5, align 8, !tbaa !68
  %26 = load i32, ptr %9, align 4, !tbaa !10
  %27 = sext i32 %26 to i64
  %28 = getelementptr inbounds float, ptr %25, i64 %27
  store float %24, ptr %28, align 4, !tbaa !70
  br label %29

29:                                               ; preds = %14
  %30 = load i32, ptr %9, align 4, !tbaa !10
  %31 = add nsw i32 %30, 1
  store i32 %31, ptr %9, align 4, !tbaa !10
  br label %10, !llvm.loop !88

32:                                               ; preds = %10
  call void @llvm.lifetime.end.p0(i64 4, ptr %9) #3
  ret void
}